target datalayout = "e-m:e-p270:32:32-p271:32:32-p272:64:64-i64:64-i128:128-f80:128-n8:16:32:64-S128"
target triple = "x86_64-pc-linux-gnu"

; Function Attrs: nounwind uwtable
define ptr @av_csp_itu_eotf_inv(i32 noundef %0) #0 {
  %2 = alloca ptr, align 8
  %3 = alloca i32, align 4
  store i32 %0, ptr %3, align 4, !tbaa !4
  %4 = load i32, ptr %3, align 4, !tbaa !4
  %5 = icmp uge i32 %4, 19
  br i1 %5, label %6, label %7

6:                                                ; preds = %1
  store ptr null, ptr %2, align 8
  br label %12

7:                                                ; preds = %1
  %8 = load i32, ptr %3, align 4, !tbaa !4
  %9 = zext i32 %8 to i64
  %10 = getelementptr inbounds nuw [19 x ptr], ptr @eotf_inv_funcs, i64 0, i64 %9
  %11 = load ptr, ptr %10, align 8, !tbaa !29
  store ptr %11, ptr %2, align 8
  br label %12

12:                                               ; preds = %7, %6
  %13 = load ptr, ptr %2, align 8
  ret ptr %13
}